; Function Attrs: null_pointer_is_valid sspstrong uwtable
define hidden nonnull ptr @get_hostname_ss7pc(i8 noundef zeroext %0, i32 noundef %1) local_unnamed_addr #3 {
  %3 = alloca ptr, align 8
  call void @llvm.lifetime.start.p0(i64 8, ptr nonnull %3)
  %4 = zext i8 %0 to i32
  %5 = shl nuw i32 %4, 24
  %6 = and i32 %1, 16777215
  %7 = or disjoint i32 %5, %6
  %8 = load ptr, ptr @ss7pc_hash_table, align 8
  %9 = zext i32 %7 to i64
  %10 = inttoptr i64 %9 to ptr
  %11 = tail call ptr @wmem_map_lookup(ptr noundef %8, ptr noundef %10)
  store volatile ptr %11, ptr %3, align 8
  %.0..0..0..0..0..0..i = load volatile ptr, ptr %3, align 8
  %12 = icmp eq ptr %.0..0..0..0..0..0..i, null
  br i1 %12, label %13, label %host_lookup_ss7pc.exit

13:                                               ; preds = %2
  %14 = load ptr, ptr @addr_resolv_scope, align 8
  %15 = tail call noalias dereferenceable_or_null(132) ptr @wmem_alloc(ptr noundef %14, i64 noundef 132) #26
  store i32 %7, ptr %15, align 4
  %16 = getelementptr inbounds nuw i8, ptr %15, i64 4
  store i8 0, ptr %16, align 4
  %17 = getelementptr inbounds nuw i8, ptr %15, i64 68
  store i8 0, ptr %17, align 4
  store volatile ptr %15, ptr %3, align 8
  %18 = load ptr, ptr @ss7pc_hash_table, align 8
  %.0..0..0..0..0..0.2.i = load volatile ptr, ptr %3, align 8
  %19 = tail call ptr @wmem_map_insert(ptr noundef %18, ptr noundef %10, ptr noundef %.0..0..0..0..0..0.2.i)
  br label %host_lookup_ss7pc.exit

host_lookup_ss7pc.exit:                           ; preds = %2, %13
  %.0..0..0..0..0..0.3.i = load volatile ptr, ptr %3, align 8
  call void @llvm.lifetime.end.p0(i64 8, ptr nonnull %3)
  %20 = getelementptr inbounds nuw i8, ptr %.0..0..0..0..0..0.3.i, i64 4
  %21 = load i8, ptr %20, align 4
  %22 = icmp eq i8 %21, 0
  br i1 %22, label %30, label %23

23:                                               ; preds = %host_lookup_ss7pc.exit
  %24 = getelementptr inbounds nuw i8, ptr %.0..0..0..0..0..0.3.i, i64 68
  %25 = load i8, ptr %24, align 4
  %26 = icmp eq i8 %25, 0
  br i1 %26, label %30, label %27

27:                                               ; preds = %23
  %28 = load i8, ptr getelementptr inbounds nuw (i8, ptr @gbl_resolv_flags, i64 7), align 1, !range !16, !noundef !17
  %29 = trunc nuw i8 %28 to i1
  %. = select i1 %29, ptr %24, ptr %20
  br label %30

30:                                               ; preds = %27, %23, %host_lookup_ss7pc.exit
  %.0 = phi ptr [ %20, %host_lookup_ss7pc.exit ], [ %20, %23 ], [ %., %27 ]
  ret ptr %.0
}